; Function Attrs: nounwind uwtable
define internal fastcc i32 @ccm_auth_decrypt(ptr noundef %0, i32 noundef range(i32 0, 3) %1, i64 noundef %2, ptr noundef readonly captures(none) %3, i64 noundef %4, ptr noundef readonly captures(none) %5, i64 noundef %6, ptr noundef readonly captures(none) %7, ptr noundef %8, ptr noundef %9, i64 noundef %10) unnamed_addr #2 {
  %12 = alloca i64, align 8
  %13 = alloca [16 x i8], align 16
  call void @llvm.lifetime.start.p0(i64 16, ptr nonnull %13) #10
  call void @llvm.lifetime.start.p0(i64 8, ptr nonnull %12) #10
  %14 = tail call i32 @mbedtls_ccm_starts(ptr noundef %0, i32 noundef range(i32 0, 4) %1, ptr noundef readonly %3, i64 noundef %4)
  %.not.i = icmp eq i32 %14, 0
  br i1 %.not.i, label %15, label %ccm_auth_crypt.exit.thread

15:                                               ; preds = %11
  %16 = tail call i32 @mbedtls_ccm_set_lengths(ptr noundef %0, i64 noundef %6, i64 noundef %2, i64 noundef %10)
  %.not29.i = icmp eq i32 %16, 0
  br i1 %.not29.i, label %17, label %ccm_auth_crypt.exit.thread

17:                                               ; preds = %15
  %18 = tail call i32 @mbedtls_ccm_update_ad(ptr noundef %0, ptr noundef readonly %5, i64 noundef %6)
  %.not30.i = icmp eq i32 %18, 0
  br i1 %.not30.i, label %19, label %ccm_auth_crypt.exit.thread

19:                                               ; preds = %17
  %20 = call i32 @mbedtls_ccm_update(ptr noundef %0, ptr noundef readonly %7, i64 noundef %2, ptr noundef %8, i64 noundef %2, ptr noundef nonnull %12)
  %.not31.i = icmp eq i32 %20, 0
  br i1 %.not31.i, label %ccm_auth_crypt.exit, label %ccm_auth_crypt.exit.thread

ccm_auth_crypt.exit.thread:                       ; preds = %11, %15, %17, %19
  %.0.i.ph = phi i32 [ %20, %19 ], [ %18, %17 ], [ %16, %15 ], [ %14, %11 ]
  call void @llvm.lifetime.end.p0(i64 8, ptr nonnull %12) #10
  br label %25

ccm_auth_crypt.exit:                              ; preds = %19
  %21 = call i32 @mbedtls_ccm_finish(ptr noundef %0, ptr noundef nonnull %13, i64 noundef %10)
  call void @llvm.lifetime.end.p0(i64 8, ptr nonnull %12) #10
  %.not = icmp eq i32 %21, 0
  br i1 %.not, label %22, label %25

22:                                               ; preds = %ccm_auth_crypt.exit
  %23 = call i32 @mbedtls_ct_memcmp(ptr noundef %9, ptr noundef nonnull %13, i64 noundef %10) #10
  %.not.i19 = icmp eq i32 %23, 0
  br i1 %.not.i19, label %25, label %24

24:                                               ; preds = %22
  call void @mbedtls_platform_zeroize(ptr noundef %8, i64 noundef %2) #10
  br label %25

25:                                               ; preds = %ccm_auth_crypt.exit.thread, %22, %ccm_auth_crypt.exit, %24
  %.0 = phi i32 [ -15, %24 ], [ %21, %ccm_auth_crypt.exit ], [ 0, %22 ], [ %.0.i.ph, %ccm_auth_crypt.exit.thread ]
  call void @llvm.lifetime.end.p0(i64 16, ptr nonnull %13) #10
  ret i32 %.0
}